target datalayout = "e-m:e-p270:32:32-p271:32:32-p272:64:64-i64:64-i128:128-f80:128-n8:16:32:64-S128"
target triple = "x86_64-unknown-linux-gnu"

%struct.ecc_key = type { i32, i32, i32, i32, ptr, ptr, %struct.ecc_point, [1 x %struct.sp_int], ptr }
%struct.ecc_point = type { [1 x %struct.sp_int], [1 x %struct.sp_int], [1 x %struct.sp_int] }
%struct.sp_int = type { i32, i32, [129 x i64] }
%struct.ecc_curve_spec = type { ptr, ptr, ptr, ptr, ptr, ptr, ptr, i32, i32, i8 }

; Function Attrs: nounwind uwtable
define internal void @wc_ecc_del_point_ex(ptr noundef %p, ptr noundef %heap) #0 {
entry:
  %p.addr = alloca ptr, align 8
  %heap.addr = alloca ptr, align 8
  %xp = alloca ptr, align 8
  store ptr %p, ptr %p.addr, align 8
  store ptr %heap, ptr %heap.addr, align 8
  %0 = load ptr, ptr %p.addr, align 8
  %cmp = icmp ne ptr %0, null
  br i1 %cmp, label %if.then, label %if.end4

if.then:                                          ; preds = %entry
  %1 = load ptr, ptr %p.addr, align 8
  %x = getelementptr inbounds %struct.ecc_point, ptr %1, i32 0, i32 0
  %arraydecay = getelementptr inbounds [1 x %struct.sp_int], ptr %x, i64 0, i64 0
  call void @sp_clear(ptr noundef %arraydecay)
  %2 = load ptr, ptr %p.addr, align 8
  %y = getelementptr inbounds %struct.ecc_point, ptr %2, i32 0, i32 1
  %arraydecay1 = getelementptr inbounds [1 x %struct.sp_int], ptr %y, i64 0, i64 0
  call void @sp_clear(ptr noundef %arraydecay1)
  %3 = load ptr, ptr %p.addr, align 8
  %z = getelementptr inbounds %struct.ecc_point, ptr %3, i32 0, i32 2
  %arraydecay2 = getelementptr inbounds [1 x %struct.sp_int], ptr %z, i64 0, i64 0
  call void @sp_clear(ptr noundef %arraydecay2)
  %4 = load ptr, ptr %p.addr, align 8
  store ptr %4, ptr %xp, align 8
  %5 = load ptr, ptr %xp, align 8
  %tobool = icmp ne ptr %5, null
  br i1 %tobool, label %if.then3, label %if.end

if.then3:                                         ; preds = %if.then
  %6 = load ptr, ptr %xp, align 8
  call void @wolfSSL_Free(ptr noundef %6)
  br label %if.end

if.end:                                           ; preds = %if.then3, %if.then
  br label %if.end4

if.end4:                                          ; preds = %if.end, %entry
  ret void
}

; Function Attrs: nounwind uwtable
define internal i32 @wc_ecc_new_point_ex(ptr noundef %point, ptr noundef %heap) #0 {
entry:
  %retval = alloca i32, align 4
  %point.addr = alloca ptr, align 8
  %heap.addr = alloca ptr, align 8
  %err = alloca i32, align 4
  %p = alloca ptr, align 8
  %xp = alloca ptr, align 8
  store ptr %point, ptr %point.addr, align 8
  store ptr %heap, ptr %heap.addr, align 8
  store i32 0, ptr %err, align 4
  %0 = load ptr, ptr %point.addr, align 8
  %cmp = icmp eq ptr %0, null
  br i1 %cmp, label %if.then, label %if.end

if.then:                                          ; preds = %entry
  store i32 -173, ptr %retval, align 4
  br label %return

if.end:                                           ; preds = %entry
  %1 = load ptr, ptr %point.addr, align 8
  %2 = load ptr, ptr %1, align 8
  store ptr %2, ptr %p, align 8
  %3 = load ptr, ptr %p, align 8
  %cmp1 = icmp eq ptr %3, null
  br i1 %cmp1, label %if.then2, label %if.end3

if.then2:                                         ; preds = %if.end
  %call = call ptr @wolfSSL_Malloc(i64 noundef 3120)
  store ptr %call, ptr %p, align 8
  br label %if.end3

if.end3:                                          ; preds = %if.then2, %if.end
  %4 = load ptr, ptr %p, align 8
  %cmp4 = icmp eq ptr %4, null
  br i1 %cmp4, label %if.then5, label %if.end6

if.then5:                                         ; preds = %if.end3
  store i32 -125, ptr %retval, align 4
  br label %return

if.end6:                                          ; preds = %if.end3
  %5 = load ptr, ptr %p, align 8
  call void @llvm.memset.p0.i64(ptr align 8 %5, i8 0, i64 3120, i1 false)
  %6 = load ptr, ptr %p, align 8
  %x = getelementptr inbounds %struct.ecc_point, ptr %6, i32 0, i32 0
  %arraydecay = getelementptr inbounds [1 x %struct.sp_int], ptr %x, i64 0, i64 0
  %7 = load ptr, ptr %p, align 8
  %y = getelementptr inbounds %struct.ecc_point, ptr %7, i32 0, i32 1
  %arraydecay7 = getelementptr inbounds [1 x %struct.sp_int], ptr %y, i64 0, i64 0
  %8 = load ptr, ptr %p, align 8
  %z = getelementptr inbounds %struct.ecc_point, ptr %8, i32 0, i32 2
  %arraydecay8 = getelementptr inbounds [1 x %struct.sp_int], ptr %z, i64 0, i64 0
  %call9 = call i32 @sp_init_multi(ptr noundef %arraydecay, ptr noundef %arraydecay7, ptr noundef %arraydecay8, ptr noundef null, ptr noundef null, ptr noundef null)
  store i32 %call9, ptr %err, align 4
  %9 = load i32, ptr %err, align 4
  %cmp10 = icmp ne i32 %9, 0
  br i1 %cmp10, label %if.then11, label %if.end14

if.then11:                                        ; preds = %if.end6
  %10 = load ptr, ptr %p, align 8
  store ptr %10, ptr %xp, align 8
  %11 = load ptr, ptr %xp, align 8
  %tobool = icmp ne ptr %11, null
  br i1 %tobool, label %if.then12, label %if.end13

if.then12:                                        ; preds = %if.then11
  %12 = load ptr, ptr %xp, align 8
  call void @wolfSSL_Free(ptr noundef %12)
  br label %if.end13

if.end13:                                         ; preds = %if.then12, %if.then11
  %13 = load i32, ptr %err, align 4
  store i32 %13, ptr %retval, align 4
  br label %return

if.end14:                                         ; preds = %if.end6
  %14 = load ptr, ptr %p, align 8
  %15 = load ptr, ptr %point.addr, align 8
  store ptr %14, ptr %15, align 8
  %16 = load i32, ptr %err, align 4
  store i32 %16, ptr %retval, align 4
  br label %return

return:                                           ; preds = %if.end14, %if.end13, %if.then5, %if.then
  %17 = load i32, ptr %retval, align 4
  ret i32 %17
}

; Function Attrs: nounwind uwtable
define internal i32 @ecc_make_pub_ex(ptr noundef %key, ptr noundef %curve, ptr noundef %pubOut, ptr noundef %rng) #0 {
entry:
  %retval = alloca i32, align 4
  %key.addr = alloca ptr, align 8
  %curve.addr = alloca ptr, align 8
  %pubOut.addr = alloca ptr, align 8
  %rng.addr = alloca ptr, align 8
  %err = alloca i32, align 4
  %pub = alloca ptr, align 8
  %mp = alloca i64, align 8
  %base = alloca ptr, align 8
  store ptr %key, ptr %key.addr, align 8
  store ptr %curve, ptr %curve.addr, align 8
  store ptr %pubOut, ptr %pubOut.addr, align 8
  store ptr %rng, ptr %rng.addr, align 8
  store i32 0, ptr %err, align 4
  %0 = load ptr, ptr %key.addr, align 8
  %cmp = icmp eq ptr %0, null
  br i1 %cmp, label %if.then, label %if.end

if.then:                                          ; preds = %entry
  store i32 -173, ptr %retval, align 4
  br label %return

if.end:                                           ; preds = %entry
  br label %do.body

do.body:                                          ; preds = %if.end
  br label %do.end

do.end:                                           ; preds = %do.body
  %1 = load ptr, ptr %pubOut.addr, align 8
  %cmp1 = icmp ne ptr %1, null
  br i1 %cmp1, label %if.then2, label %if.else

if.then2:                                         ; preds = %do.end
  %2 = load ptr, ptr %pubOut.addr, align 8
  store ptr %2, ptr %pub, align 8
  br label %if.end3

if.else:                                          ; preds = %do.end
  %3 = load ptr, ptr %key.addr, align 8
  %pubkey = getelementptr inbounds %struct.ecc_key, ptr %3, i32 0, i32 6
  store ptr %pubkey, ptr %pub, align 8
  %4 = load ptr, ptr %key.addr, align 8
  %type = getelementptr inbounds %struct.ecc_key, ptr %4, i32 0, i32 0
  store i32 3, ptr %type, align 8
  br label %if.end3

if.end3:                                          ; preds = %if.else, %if.then2
  %5 = load i32, ptr %err, align 4
  %cmp4 = icmp eq i32 %5, 0
  br i1 %cmp4, label %land.lhs.true, label %if.end10

land.lhs.true:                                    ; preds = %if.end3
  %6 = load ptr, ptr %key.addr, align 8
  %k = getelementptr inbounds %struct.ecc_key, ptr %6, i32 0, i32 7
  %arraydecay = getelementptr inbounds [1 x %struct.sp_int], ptr %k, i64 0, i64 0
  %used = getelementptr inbounds %struct.sp_int, ptr %arraydecay, i32 0, i32 0
  %7 = load i32, ptr %used, align 8
  %cmp5 = icmp eq i32 %7, 0
  br i1 %cmp5, label %if.then9, label %lor.lhs.false

lor.lhs.false:                                    ; preds = %land.lhs.true
  %8 = load ptr, ptr %key.addr, align 8
  %k6 = getelementptr inbounds %struct.ecc_key, ptr %8, i32 0, i32 7
  %arraydecay7 = getelementptr inbounds [1 x %struct.sp_int], ptr %k6, i64 0, i64 0
  %9 = load ptr, ptr %curve.addr, align 8
  %order = getelementptr inbounds %struct.ecc_curve_spec, ptr %9, i32 0, i32 3
  %10 = load ptr, ptr %order, align 8
  %call = call i32 @sp_cmp(ptr noundef %arraydecay7, ptr noundef %10)
  %cmp8 = icmp ne i32 %call, -1
  br i1 %cmp8, label %if.then9, label %if.end10

if.then9:                                         ; preds = %lor.lhs.false, %land.lhs.true
  store i32 -216, ptr %err, align 4
  br label %if.end10

if.end10:                                         ; preds = %if.then9, %lor.lhs.false, %if.end3
  %11 = load i32, ptr %err, align 4
  %cmp11 = icmp eq i32 %11, 0
  br i1 %cmp11, label %if.then12, label %if.end17

if.then12:                                        ; preds = %if.end10
  %12 = load ptr, ptr %pub, align 8
  %x = getelementptr inbounds %struct.ecc_point, ptr %12, i32 0, i32 0
  %arraydecay13 = getelementptr inbounds [1 x %struct.sp_int], ptr %x, i64 0, i64 0
  %13 = load ptr, ptr %pub, align 8
  %y = getelementptr inbounds %struct.ecc_point, ptr %13, i32 0, i32 1
  %arraydecay14 = getelementptr inbounds [1 x %struct.sp_int], ptr %y, i64 0, i64 0
  %14 = load ptr, ptr %pub, align 8
  %z = getelementptr inbounds %struct.ecc_point, ptr %14, i32 0, i32 2
  %arraydecay15 = getelementptr inbounds [1 x %struct.sp_int], ptr %z, i64 0, i64 0
  %call16 = call i32 @sp_init_multi(ptr noundef %arraydecay13, ptr noundef %arraydecay14, ptr noundef %arraydecay15, ptr noundef null, ptr noundef null, ptr noundef null)
  store i32 %call16, ptr %err, align 4
  br label %if.end17

if.end17:                                         ; preds = %if.then12, %if.end10
  %15 = load i32, ptr %err, align 4
  %cmp18 = icmp eq i32 %15, 0
  br i1 %cmp18, label %if.then19, label %if.end61

if.then19:                                        ; preds = %if.end17
  store i64 0, ptr %mp, align 8
  store ptr null, ptr %base, align 8
  %16 = load ptr, ptr %key.addr, align 8
  %heap = getelementptr inbounds %struct.ecc_key, ptr %16, i32 0, i32 5
  %17 = load ptr, ptr %heap, align 8
  %call20 = call i32 @wc_ecc_new_point_ex(ptr noundef %base, ptr noundef %17)
  store i32 %call20, ptr %err, align 4
  %18 = load i32, ptr %err, align 4
  %cmp21 = icmp eq i32 %18, 0
  br i1 %cmp21, label %if.then22, label %if.end26

if.then22:                                        ; preds = %if.then19
  %19 = load ptr, ptr %curve.addr, align 8
  %Gx = getelementptr inbounds %struct.ecc_curve_spec, ptr %19, i32 0, i32 4
  %20 = load ptr, ptr %Gx, align 8
  %21 = load ptr, ptr %base, align 8
  %x23 = getelementptr inbounds %struct.ecc_point, ptr %21, i32 0, i32 0
  %arraydecay24 = getelementptr inbounds [1 x %struct.sp_int], ptr %x23, i64 0, i64 0
  %call25 = call i32 @sp_copy(ptr noundef %20, ptr noundef %arraydecay24)
  store i32 %call25, ptr %err, align 4
  br label %if.end26

if.end26:                                         ; preds = %if.then22, %if.then19
  %22 = load i32, ptr %err, align 4
  %cmp27 = icmp eq i32 %22, 0
  br i1 %cmp27, label %if.then28, label %if.end32

if.then28:                                        ; preds = %if.end26
  %23 = load ptr, ptr %curve.addr, align 8
  %Gy = getelementptr inbounds %struct.ecc_curve_spec, ptr %23, i32 0, i32 5
  %24 = load ptr, ptr %Gy, align 8
  %25 = load ptr, ptr %base, align 8
  %y29 = getelementptr inbounds %struct.ecc_point, ptr %25, i32 0, i32 1
  %arraydecay30 = getelementptr inbounds [1 x %struct.sp_int], ptr %y29, i64 0, i64 0
  %call31 = call i32 @sp_copy(ptr noundef %24, ptr noundef %arraydecay30)
  store i32 %call31, ptr %err, align 4
  br label %if.end32

if.end32:                                         ; preds = %if.then28, %if.end26
  %26 = load i32, ptr %err, align 4
  %cmp33 = icmp eq i32 %26, 0
  br i1 %cmp33, label %if.then34, label %if.end36

if.then34:                                        ; preds = %if.end32
  %27 = load ptr, ptr %curve.addr, align 8
  %prime = getelementptr inbounds %struct.ecc_curve_spec, ptr %27, i32 0, i32 1
  %28 = load ptr, ptr %prime, align 8
  %call35 = call i32 @sp_mont_setup(ptr noundef %28, ptr noundef %mp)
  store i32 %call35, ptr %err, align 4
  br label %if.end36

if.end36:                                         ; preds = %if.then34, %if.end32
  %29 = load i32, ptr %err, align 4
  %cmp37 = icmp eq i32 %29, 0
  br i1 %cmp37, label %if.then38, label %if.end42

if.then38:                                        ; preds = %if.end36
  %30 = load ptr, ptr %base, align 8
  %z39 = getelementptr inbounds %struct.ecc_point, ptr %30, i32 0, i32 2
  %arraydecay40 = getelementptr inbounds [1 x %struct.sp_int], ptr %z39, i64 0, i64 0
  %call41 = call i32 @sp_set(ptr noundef %arraydecay40, i64 noundef 1)
  store i32 %call41, ptr %err, align 4
  br label %if.end42

if.end42:                                         ; preds = %if.then38, %if.end36
  %31 = load i32, ptr %err, align 4
  %cmp43 = icmp eq i32 %31, 0
  br i1 %cmp43, label %if.then44, label %if.end54

if.then44:                                        ; preds = %if.end42
  %32 = load ptr, ptr %key.addr, align 8
  %k45 = getelementptr inbounds %struct.ecc_key, ptr %32, i32 0, i32 7
  %arraydecay46 = getelementptr inbounds [1 x %struct.sp_int], ptr %k45, i64 0, i64 0
  %33 = load ptr, ptr %base, align 8
  %34 = load ptr, ptr %pub, align 8
  %35 = load ptr, ptr %curve.addr, align 8
  %Af = getelementptr inbounds %struct.ecc_curve_spec, ptr %35, i32 0, i32 2
  %36 = load ptr, ptr %Af, align 8
  %37 = load ptr, ptr %curve.addr, align 8
  %prime47 = getelementptr inbounds %struct.ecc_curve_spec, ptr %37, i32 0, i32 1
  %38 = load ptr, ptr %prime47, align 8
  %39 = load ptr, ptr %curve.addr, align 8
  %order48 = getelementptr inbounds %struct.ecc_curve_spec, ptr %39, i32 0, i32 3
  %40 = load ptr, ptr %order48, align 8
  %41 = load ptr, ptr %rng.addr, align 8
  %42 = load ptr, ptr %key.addr, align 8
  %heap49 = getelementptr inbounds %struct.ecc_key, ptr %42, i32 0, i32 5
  %43 = load ptr, ptr %heap49, align 8
  %call50 = call i32 @wc_ecc_mulmod_ex2(ptr noundef %arraydecay46, ptr noundef %33, ptr noundef %34, ptr noundef %36, ptr noundef %38, ptr noundef %40, ptr noundef %41, i32 noundef 0, ptr noundef %43)
  store i32 %call50, ptr %err, align 4
  %44 = load i32, ptr %err, align 4
  %cmp51 = icmp eq i32 %44, -2
  br i1 %cmp51, label %if.then52, label %if.end53

if.then52:                                        ; preds = %if.then44
  store i32 -125, ptr %err, align 4
  br label %if.end53

if.end53:                                         ; preds = %if.then52, %if.then44
  br label %if.end54

if.end54:                                         ; preds = %if.end53, %if.end42
  %45 = load i32, ptr %err, align 4
  %cmp55 = icmp eq i32 %45, 0
  br i1 %cmp55, label %if.then56, label %if.end59

if.then56:                                        ; preds = %if.end54
  %46 = load ptr, ptr %pub, align 8
  %47 = load ptr, ptr %curve.addr, align 8
  %prime57 = getelementptr inbounds %struct.ecc_curve_spec, ptr %47, i32 0, i32 1
  %48 = load ptr, ptr %prime57, align 8
  %49 = load i64, ptr %mp, align 8
  %call58 = call i32 @ecc_map_ex(ptr noundef %46, ptr noundef %48, i64 noundef %49, i32 noundef 1)
  store i32 %call58, ptr %err, align 4
  br label %if.end59

if.end59:                                         ; preds = %if.then56, %if.end54
  %50 = load ptr, ptr %base, align 8
  %51 = load ptr, ptr %key.addr, align 8
  %heap60 = getelementptr inbounds %struct.ecc_key, ptr %51, i32 0, i32 5
  %52 = load ptr, ptr %heap60, align 8
  call void @wc_ecc_del_point_ex(ptr noundef %50, ptr noundef %52)
  br label %if.end61

if.end61:                                         ; preds = %if.end59, %if.end17
  %53 = load i32, ptr %err, align 4
  %cmp62 = icmp ne i32 %53, 0
  br i1 %cmp62, label %if.then63, label %if.end70

if.then63:                                        ; preds = %if.end61
  %54 = load ptr, ptr %pub, align 8
  %x64 = getelementptr inbounds %struct.ecc_point, ptr %54, i32 0, i32 0
  %arraydecay65 = getelementptr inbounds [1 x %struct.sp_int], ptr %x64, i64 0, i64 0
  call void @sp_clear(ptr noundef %arraydecay65)
  %55 = load ptr, ptr %pub, align 8
  %y66 = getelementptr inbounds %struct.ecc_point, ptr %55, i32 0, i32 1
  %arraydecay67 = getelementptr inbounds [1 x %struct.sp_int], ptr %y66, i64 0, i64 0
  call void @sp_clear(ptr noundef %arraydecay67)
  %56 = load ptr, ptr %pub, align 8
  %z68 = getelementptr inbounds %struct.ecc_point, ptr %56, i32 0, i32 2
  %arraydecay69 = getelementptr inbounds [1 x %struct.sp_int], ptr %z68, i64 0, i64 0
  call void @sp_clear(ptr noundef %arraydecay69)
  br label %if.end70

if.end70:                                         ; preds = %if.then63, %if.end61
  %57 = load ptr, ptr %key.addr, align 8
  %type71 = getelementptr inbounds %struct.ecc_key, ptr %57, i32 0, i32 0
  %58 = load i32, ptr %type71, align 8
  %cmp72 = icmp eq i32 %58, 3
  br i1 %cmp72, label %land.lhs.true73, label %if.end77

land.lhs.true73:                                  ; preds = %if.end70
  %59 = load ptr, ptr %pubOut.addr, align 8
  %cmp74 = icmp eq ptr %59, null
  br i1 %cmp74, label %if.then75, label %if.end77

if.then75:                                        ; preds = %land.lhs.true73
  %60 = load ptr, ptr %key.addr, align 8
  %type76 = getelementptr inbounds %struct.ecc_key, ptr %60, i32 0, i32 0
  store i32 2, ptr %type76, align 8
  br label %if.end77

if.end77:                                         ; preds = %if.then75, %land.lhs.true73, %if.end70
  br label %do.body78

do.body78:                                        ; preds = %if.end77
  br label %do.end79

do.end79:                                         ; preds = %do.body78
  %61 = load i32, ptr %err, align 4
  store i32 %61, ptr %retval, align 4
  br label %return

return:                                           ; preds = %do.end79, %if.then
  %62 = load i32, ptr %retval, align 4
  ret i32 %62
}