; Function Attrs: nounwind uwtable
define internal fastcc i32 @ecc_make_pub_ex(ptr noundef %key, ptr noundef readonly captures(none) %curve, ptr noundef %pubOut, ptr noundef %rng) unnamed_addr #2 {
entry:
  %mp = alloca i64, align 8
  %cmp = icmp eq ptr %key, null
  br i1 %cmp, label %return, label %do.end

do.end:                                           ; preds = %entry
  %cmp1.not = icmp eq ptr %pubOut, null
  br i1 %cmp1.not, label %if.else, label %land.lhs.true

if.else:                                          ; preds = %do.end
  %pubkey = getelementptr inbounds nuw i8, ptr %key, i64 32
  store i32 3, ptr %key, align 8
  br label %land.lhs.true

land.lhs.true:                                    ; preds = %if.else, %do.end
  %pub.0 = phi ptr [ %pubkey, %if.else ], [ %pubOut, %do.end ]
  %k = getelementptr inbounds nuw i8, ptr %key, i64 3152
  %0 = load i32, ptr %k, align 8
  %cmp5 = icmp eq i32 %0, 0
  br i1 %cmp5, label %if.then63, label %lor.lhs.false

lor.lhs.false:                                    ; preds = %land.lhs.true
  %order = getelementptr inbounds nuw i8, ptr %curve, i64 24
  %1 = load ptr, ptr %order, align 8
  %call = tail call i32 @sp_cmp(ptr noundef nonnull %k, ptr noundef %1) #19
  %cmp8.not = icmp eq i32 %call, -1
  br i1 %cmp8.not, label %if.end17, label %if.then63

if.end17:                                         ; preds = %lor.lhs.false
  %y = getelementptr inbounds nuw i8, ptr %pub.0, i64 1040
  %z = getelementptr inbounds nuw i8, ptr %pub.0, i64 2080
  %call16 = tail call i32 @sp_init_multi(ptr noundef nonnull %pub.0, ptr noundef nonnull %y, ptr noundef nonnull %z, ptr noundef null, ptr noundef null, ptr noundef null) #19
  %cmp18 = icmp eq i32 %call16, 0
  br i1 %cmp18, label %if.end3.i, label %if.then63

if.end3.i:                                        ; preds = %if.end17
  store i64 0, ptr %mp, align 8
  %call.i = tail call ptr @wolfSSL_Malloc(i64 noundef 3120) #19
  %cmp4.i = icmp eq ptr %call.i, null
  br i1 %cmp4.i, label %if.then63, label %if.end6.i

if.end6.i:                                        ; preds = %if.end3.i
  tail call void @llvm.memset.p0.i64(ptr noundef nonnull align 8 dereferenceable(3120) %call.i, i8 0, i64 3120, i1 false)
  %y.i = getelementptr inbounds nuw i8, ptr %call.i, i64 1040
  %z.i = getelementptr inbounds nuw i8, ptr %call.i, i64 2080
  %call9.i = tail call i32 @sp_init_multi(ptr noundef nonnull %call.i, ptr noundef nonnull %y.i, ptr noundef nonnull %z.i, ptr noundef null, ptr noundef null, ptr noundef null) #19
  %cmp10.not.i = icmp eq i32 %call9.i, 0
  br i1 %cmp10.not.i, label %if.end26, label %if.then12.i

if.then12.i:                                      ; preds = %if.end6.i
  tail call void @wolfSSL_Free(ptr noundef nonnull %call.i) #19
  br label %if.then63

if.end26:                                         ; preds = %if.end6.i
  %Gx = getelementptr inbounds nuw i8, ptr %curve, i64 32
  %2 = load ptr, ptr %Gx, align 8
  %call25 = tail call i32 @sp_copy(ptr noundef %2, ptr noundef nonnull %call.i) #19
  %cmp27 = icmp eq i32 %call25, 0
  br i1 %cmp27, label %if.end32, label %if.end61

if.end32:                                         ; preds = %if.end26
  %Gy = getelementptr inbounds nuw i8, ptr %curve, i64 40
  %3 = load ptr, ptr %Gy, align 8
  %call31 = tail call i32 @sp_copy(ptr noundef %3, ptr noundef nonnull %y.i) #19
  %cmp33 = icmp eq i32 %call31, 0
  br i1 %cmp33, label %if.end36, label %if.end61

if.end36:                                         ; preds = %if.end32
  %prime = getelementptr inbounds nuw i8, ptr %curve, i64 8
  %4 = load ptr, ptr %prime, align 8
  %call35 = call i32 @sp_mont_setup(ptr noundef %4, ptr noundef nonnull %mp) #19
  %cmp37 = icmp eq i32 %call35, 0
  br i1 %cmp37, label %if.end42, label %if.end61

if.end42:                                         ; preds = %if.end36
  %call41 = call i32 @sp_set(ptr noundef nonnull %z.i, i64 noundef 1) #19
  %cmp43 = icmp eq i32 %call41, 0
  br i1 %cmp43, label %if.then44, label %if.end61

if.then44:                                        ; preds = %if.end42
  %Af = getelementptr inbounds nuw i8, ptr %curve, i64 16
  %5 = load ptr, ptr %Af, align 8
  %6 = load ptr, ptr %prime, align 8
  %7 = load ptr, ptr %order, align 8
  %call50 = call i32 @wc_ecc_mulmod_ex2(ptr noundef nonnull %k, ptr noundef nonnull %call.i, ptr noundef nonnull %pub.0, ptr noundef %5, ptr noundef %6, ptr noundef %7, ptr noundef %rng, i32 noundef 0, ptr poison)
  switch i32 %call50, label %if.end61.fold.split [
    i32 -2, label %if.end61
    i32 0, label %if.then56
  ]

if.then56:                                        ; preds = %if.then44
  %8 = load ptr, ptr %prime, align 8
  %9 = load i64, ptr %mp, align 8
  %call58 = call i32 @ecc_map_ex(ptr noundef nonnull %pub.0, ptr noundef %8, i64 noundef %9, i32 noundef 1)
  br label %if.end61

if.end61.fold.split:                              ; preds = %if.then44
  br label %if.end61

if.end61:                                         ; preds = %if.then44, %if.end61.fold.split, %if.end42, %if.then56, %if.end36, %if.end32, %if.end26
  %err.877 = phi i32 [ %call25, %if.end26 ], [ %call31, %if.end32 ], [ %call35, %if.end36 ], [ %call58, %if.then56 ], [ %call41, %if.end42 ], [ -125, %if.then44 ], [ %call50, %if.end61.fold.split ]
  call void @sp_clear(ptr noundef nonnull %call.i) #19
  call void @sp_clear(ptr noundef nonnull %y.i) #19
  call void @sp_clear(ptr noundef nonnull %z.i) #19
  call void @wolfSSL_Free(ptr noundef nonnull %call.i) #19
  %cmp62.not = icmp eq i32 %err.877, 0
  br i1 %cmp62.not, label %if.end70, label %if.then63

if.then63:                                        ; preds = %if.end3.i, %if.then12.i, %lor.lhs.false, %land.lhs.true, %if.end17, %if.end61
  %err.298 = phi i32 [ %err.877, %if.end61 ], [ %call16, %if.end17 ], [ -216, %land.lhs.true ], [ -216, %lor.lhs.false ], [ -125, %if.end3.i ], [ %call9.i, %if.then12.i ]
  call void @sp_clear(ptr noundef nonnull %pub.0) #19
  %y66 = getelementptr inbounds nuw i8, ptr %pub.0, i64 1040
  call void @sp_clear(ptr noundef nonnull %y66) #19
  %z68 = getelementptr inbounds nuw i8, ptr %pub.0, i64 2080
  call void @sp_clear(ptr noundef nonnull %z68) #19
  br label %if.end70

if.end70:                                         ; preds = %if.then63, %if.end61
  %err.299 = phi i32 [ %err.298, %if.then63 ], [ 0, %if.end61 ]
  %10 = load i32, ptr %key, align 8
  %cmp72 = icmp eq i32 %10, 3
  %or.cond = and i1 %cmp1.not, %cmp72
  br i1 %or.cond, label %if.then75, label %return

if.then75:                                        ; preds = %if.end70
  store i32 2, ptr %key, align 8
  br label %return

return:                                           ; preds = %if.end70, %if.then75, %entry
  %retval.0 = phi i32 [ -173, %entry ], [ %err.299, %if.then75 ], [ %err.299, %if.end70 ]
  ret i32 %retval.0
}